; Function Attrs: mustprogress nounwind uwtable
define dso_local void @_ZN4node15TimerWrapHandle6UpdateEmm(ptr nocapture noundef nonnull readonly align 8 dereferenceable(16) %this, i64 noundef %interval, i64 noundef %repeat) local_unnamed_addr #3 align 2 {
entry:
  %timer_ = getelementptr inbounds i8, ptr %this, i64 8
  %0 = load ptr, ptr %timer_, align 8
  %cmp.not = icmp eq ptr %0, null
  br i1 %cmp.not, label %if.end, label %if.then

if.then:                                          ; preds = %entry
  %timer_.i = getelementptr inbounds i8, ptr %0, i64 48
  %1 = load ptr, ptr %timer_.i, align 8
  %cmp.i = icmp eq ptr %1, null
  br i1 %cmp.i, label %if.end, label %if.end.i

if.end.i:                                         ; preds = %if.then
  %call.i = tail call i32 @uv_timer_start(ptr noundef nonnull %timer_.i, ptr noundef nonnull @_ZN4node9TimerWrap9OnTimeoutEP10uv_timer_s, i64 noundef %interval, i64 noundef %repeat) #13
  br label %if.end

if.end:                                           ; preds = %if.end.i, %if.then, %entry
  ret void
}